target datalayout = "e-m:e-p270:32:32-p271:32:32-p272:64:64-i64:64-i128:128-f80:128-n8:16:32:64-S128"
target triple = "x86_64-pc-linux-gnu"

%struct.stbte__colorrect = type { i32, i32, i32, i32, i32 }
%struct.stbte__panel = type { i32, i32, i32, i32, i32, i32, i32, i32 }
%struct.stbte__ui_t = type { i32, i32, i32, i32, i32, i32, i32, i32, i32, i32, i32, i32, i32, i32, [2 x i32], [256 x %struct.stbte__colorrect], i32, i32, i32, i32, i32, i32, i32, i32, i32, i32, i32, i32, i32, i32, i32, i32, i32, i32, i32, i32, i32, i32, i32, i32, i32, i32, i32, i32, i32, i32, i32, i32, i32, i32, i32, i32, i32, i32, i32, i32, i32, float, ptr, float, [7 x %struct.stbte__panel], [65536 x [8 x i16]], [65536 x [1 x float]], i32, i32, ptr, i32, i32, i32, i32 }

; Function Attrs: nounwind uwtable
define void @stbte__draw_frame_delayed(i32 noundef %0, i32 noundef %1, i32 noundef %2, i32 noundef %3, i32 noundef %4) #0 {
  %6 = alloca i32, align 4
  %7 = alloca i32, align 4
  %8 = alloca i32, align 4
  %9 = alloca i32, align 4
  %10 = alloca i32, align 4
  %11 = alloca %struct.stbte__colorrect, align 4
  store i32 %0, ptr %6, align 4, !tbaa !13
  store i32 %1, ptr %7, align 4, !tbaa !13
  store i32 %2, ptr %8, align 4, !tbaa !13
  store i32 %3, ptr %9, align 4, !tbaa !13
  store i32 %4, ptr %10, align 4, !tbaa !13
  %12 = load i32, ptr getelementptr inbounds nuw (%struct.stbte__ui_t, ptr @stbte__ui, i32 0, i32 16), align 8, !tbaa !100
  %13 = icmp slt i32 %12, 256
  br i1 %13, label %14, label %29

14:                                               ; preds = %5
  call void @llvm.lifetime.start.p0(i64 20, ptr %11) #8
  %15 = getelementptr inbounds nuw %struct.stbte__colorrect, ptr %11, i32 0, i32 0
  %16 = load i32, ptr %6, align 4, !tbaa !13
  store i32 %16, ptr %15, align 4, !tbaa !101
  %17 = getelementptr inbounds nuw %struct.stbte__colorrect, ptr %11, i32 0, i32 1
  %18 = load i32, ptr %7, align 4, !tbaa !13
  store i32 %18, ptr %17, align 4, !tbaa !103
  %19 = getelementptr inbounds nuw %struct.stbte__colorrect, ptr %11, i32 0, i32 2
  %20 = load i32, ptr %8, align 4, !tbaa !13
  store i32 %20, ptr %19, align 4, !tbaa !104
  %21 = getelementptr inbounds nuw %struct.stbte__colorrect, ptr %11, i32 0, i32 3
  %22 = load i32, ptr %9, align 4, !tbaa !13
  store i32 %22, ptr %21, align 4, !tbaa !105
  %23 = getelementptr inbounds nuw %struct.stbte__colorrect, ptr %11, i32 0, i32 4
  %24 = load i32, ptr %10, align 4, !tbaa !13
  store i32 %24, ptr %23, align 4, !tbaa !106
  %25 = load i32, ptr getelementptr inbounds nuw (%struct.stbte__ui_t, ptr @stbte__ui, i32 0, i32 16), align 8, !tbaa !100
  %26 = add nsw i32 %25, 1
  store i32 %26, ptr getelementptr inbounds nuw (%struct.stbte__ui_t, ptr @stbte__ui, i32 0, i32 16), align 8, !tbaa !100
  %27 = sext i32 %25 to i64
  %28 = getelementptr inbounds [256 x %struct.stbte__colorrect], ptr getelementptr inbounds nuw (%struct.stbte__ui_t, ptr @stbte__ui, i32 0, i32 15), i64 0, i64 %27
  call void @llvm.memcpy.p0.p0.i64(ptr align 4 %28, ptr align 4 %11, i64 20, i1 false), !tbaa.struct !107
  call void @llvm.lifetime.end.p0(i64 20, ptr %11) #8
  br label %29

29:                                               ; preds = %14, %5
  ret void
}