; Function Attrs: mustprogress nofree norecurse nosync nounwind willreturn memory(readwrite, argmem: none, inaccessiblemem: none) uwtable
define void @stbte__draw_frame_delayed(i32 noundef %0, i32 noundef %1, i32 noundef %2, i32 noundef %3, i32 noundef %4) local_unnamed_addr #18 {
  %6 = load i32, ptr getelementptr inbounds nuw (i8, ptr @stbte__ui, i64 5184), align 8, !tbaa !86
  %7 = icmp slt i32 %6, 256
  br i1 %7, label %8, label %12

8:                                                ; preds = %5
  %9 = add nsw i32 %6, 1
  store i32 %9, ptr getelementptr inbounds nuw (i8, ptr @stbte__ui, i64 5184), align 8, !tbaa !86
  %10 = sext i32 %6 to i64
  %11 = getelementptr inbounds [256 x %struct.stbte__colorrect], ptr getelementptr inbounds nuw (i8, ptr @stbte__ui, i64 64), i64 0, i64 %10
  store i32 %0, ptr %11, align 4, !tbaa !67
  %.sroa.4.0..sroa_idx = getelementptr inbounds nuw i8, ptr %11, i64 4
  store i32 %1, ptr %.sroa.4.0..sroa_idx, align 4, !tbaa !67
  %.sroa.5.0..sroa_idx = getelementptr inbounds nuw i8, ptr %11, i64 8
  store i32 %2, ptr %.sroa.5.0..sroa_idx, align 4, !tbaa !67
  %.sroa.6.0..sroa_idx = getelementptr inbounds nuw i8, ptr %11, i64 12
  store i32 %3, ptr %.sroa.6.0..sroa_idx, align 4, !tbaa !67
  %.sroa.7.0..sroa_idx = getelementptr inbounds nuw i8, ptr %11, i64 16
  store i32 %4, ptr %.sroa.7.0..sroa_idx, align 4, !tbaa !67
  br label %12

12:                                               ; preds = %8, %5
  ret void
}